; Function Attrs: mustprogress uwtable
define noundef nonnull align 8 dereferenceable(16) ptr @_ZrsRSiRKN11colvarparse10read_blockE(ptr noundef nonnull returned align 8 dereferenceable(16) %0, ptr noundef nonnull align 8 dereferenceable(40) %1) local_unnamed_addr #2 personality ptr @__gxx_personality_v0 {
  %3 = alloca %"class.std::__cxx11::basic_string", align 8
  %4 = alloca %"class.std::__cxx11::basic_string", align 8
  %5 = tail call { i64, i64 } @_ZNSi5tellgEv(ptr noundef nonnull align 8 dereferenceable(16) %0)
  %6 = extractvalue { i64, i64 } %5, 0
  %7 = extractvalue { i64, i64 } %5, 1
  call void @_ZNSt7__cxx1112basic_stringIcSt11char_traitsIcESaIcEEC1Ev(ptr noundef nonnull align 8 dereferenceable(32) %3) #15
  %8 = invoke noundef nonnull align 8 dereferenceable(16) ptr @_ZStrsIcSt11char_traitsIcESaIcEERSt13basic_istreamIT_T0_ES7_RNSt7__cxx1112basic_stringIS4_S5_T1_EE(ptr noundef nonnull align 8 dereferenceable(16) %0, ptr noundef nonnull align 8 dereferenceable(32) %3)
          to label %9 unwind label %37

9:                                                ; preds = %2
  %10 = load ptr, ptr %8, align 8
  %11 = getelementptr i8, ptr %10, i64 -24
  %12 = load i64, ptr %11, align 8
  %13 = getelementptr inbounds i8, ptr %8, i64 %12
  %14 = invoke noundef zeroext i1 @_ZNKSt9basic_iosIcSt11char_traitsIcEEntEv(ptr noundef nonnull align 8 dereferenceable(264) %13)
          to label %15 unwind label %37

15:                                               ; preds = %9
  br i1 %14, label %_ZSteqIcEN9__gnu_cxx11__enable_ifIXsr9__is_charIT_EE7__valueEbE6__typeERKNSt7__cxx1112basic_stringIS2_St11char_traitsIS2_ESaIS2_EEESC_.exit.thread26, label %16

16:                                               ; preds = %15
  %17 = call noundef i64 @_ZNKSt7__cxx1112basic_stringIcSt11char_traitsIcESaIcEE4sizeEv(ptr noundef nonnull align 8 dereferenceable(32) %3) #15
  %18 = call noundef i64 @_ZNKSt7__cxx1112basic_stringIcSt11char_traitsIcESaIcEE4sizeEv(ptr noundef nonnull align 8 dereferenceable(32) %1) #15
  %19 = icmp eq i64 %17, %18
  br i1 %19, label %20, label %_ZSteqIcEN9__gnu_cxx11__enable_ifIXsr9__is_charIT_EE7__valueEbE6__typeERKNSt7__cxx1112basic_stringIS2_St11char_traitsIS2_ESaIS2_EEESC_.exit.thread26

20:                                               ; preds = %16
  %21 = call noundef ptr @_ZNKSt7__cxx1112basic_stringIcSt11char_traitsIcESaIcEE4dataEv(ptr noundef nonnull align 8 dereferenceable(32) %3) #15
  %22 = call noundef ptr @_ZNKSt7__cxx1112basic_stringIcSt11char_traitsIcESaIcEE4dataEv(ptr noundef nonnull align 8 dereferenceable(32) %1) #15
  %23 = call noundef i64 @_ZNKSt7__cxx1112basic_stringIcSt11char_traitsIcESaIcEE4sizeEv(ptr noundef nonnull align 8 dereferenceable(32) %3) #15
  %24 = icmp eq i64 %23, 0
  br i1 %24, label %_ZSteqIcEN9__gnu_cxx11__enable_ifIXsr9__is_charIT_EE7__valueEbE6__typeERKNSt7__cxx1112basic_stringIS2_St11char_traitsIS2_ESaIS2_EEESC_.exit.thread, label %_ZSteqIcEN9__gnu_cxx11__enable_ifIXsr9__is_charIT_EE7__valueEbE6__typeERKNSt7__cxx1112basic_stringIS2_St11char_traitsIS2_ESaIS2_EEESC_.exit

_ZSteqIcEN9__gnu_cxx11__enable_ifIXsr9__is_charIT_EE7__valueEbE6__typeERKNSt7__cxx1112basic_stringIS2_St11char_traitsIS2_ESaIS2_EEESC_.exit: ; preds = %20
  %bcmp.i = call i32 @bcmp(ptr %21, ptr %22, i64 %23)
  %25 = icmp eq i32 %bcmp.i, 0
  br i1 %25, label %_ZSteqIcEN9__gnu_cxx11__enable_ifIXsr9__is_charIT_EE7__valueEbE6__typeERKNSt7__cxx1112basic_stringIS2_St11char_traitsIS2_ESaIS2_EEESC_.exit.thread, label %_ZSteqIcEN9__gnu_cxx11__enable_ifIXsr9__is_charIT_EE7__valueEbE6__typeERKNSt7__cxx1112basic_stringIS2_St11char_traitsIS2_ESaIS2_EEESC_.exit.thread26

_ZSteqIcEN9__gnu_cxx11__enable_ifIXsr9__is_charIT_EE7__valueEbE6__typeERKNSt7__cxx1112basic_stringIS2_St11char_traitsIS2_ESaIS2_EEESC_.exit.thread26: ; preds = %16, %_ZSteqIcEN9__gnu_cxx11__enable_ifIXsr9__is_charIT_EE7__valueEbE6__typeERKNSt7__cxx1112basic_stringIS2_St11char_traitsIS2_ESaIS2_EEESC_.exit, %15
  %26 = load ptr, ptr %0, align 8
  %27 = getelementptr i8, ptr %26, i64 -24
  %28 = load i64, ptr %27, align 8
  %29 = getelementptr inbounds i8, ptr %0, i64 %28
  invoke void @_ZNSt9basic_iosIcSt11char_traitsIcEE5clearESt12_Ios_Iostate(ptr noundef nonnull align 8 dereferenceable(264) %29, i32 noundef 0)
          to label %30 unwind label %37

30:                                               ; preds = %_ZSteqIcEN9__gnu_cxx11__enable_ifIXsr9__is_charIT_EE7__valueEbE6__typeERKNSt7__cxx1112basic_stringIS2_St11char_traitsIS2_ESaIS2_EEESC_.exit.thread26
  %31 = invoke noundef nonnull align 8 dereferenceable(16) ptr @_ZNSi5seekgESt4fposI11__mbstate_tE(ptr noundef nonnull align 8 dereferenceable(16) %0, i64 %6, i64 %7)
          to label %32 unwind label %37

32:                                               ; preds = %30
  %33 = load ptr, ptr %0, align 8
  %34 = getelementptr i8, ptr %33, i64 -24
  %35 = load i64, ptr %34, align 8
  %36 = getelementptr inbounds i8, ptr %0, i64 %35
  invoke void @_ZNSt9basic_iosIcSt11char_traitsIcEE8setstateESt12_Ios_Iostate(ptr noundef nonnull align 8 dereferenceable(264) %36, i32 noundef 4)
          to label %72 unwind label %37

37:                                               ; preds = %32, %30, %_ZSteqIcEN9__gnu_cxx11__enable_ifIXsr9__is_charIT_EE7__valueEbE6__typeERKNSt7__cxx1112basic_stringIS2_St11char_traitsIS2_ESaIS2_EEESC_.exit.thread26, %9, %2
  %38 = landingpad { ptr, i32 }
          cleanup
  br label %73

_ZSteqIcEN9__gnu_cxx11__enable_ifIXsr9__is_charIT_EE7__valueEbE6__typeERKNSt7__cxx1112basic_stringIS2_St11char_traitsIS2_ESaIS2_EEESC_.exit.thread: ; preds = %20, %_ZSteqIcEN9__gnu_cxx11__enable_ifIXsr9__is_charIT_EE7__valueEbE6__typeERKNSt7__cxx1112basic_stringIS2_St11char_traitsIS2_ESaIS2_EEESC_.exit
  call void @_ZNSt7__cxx1112basic_stringIcSt11char_traitsIcESaIcEEC1Ev(ptr noundef nonnull align 8 dereferenceable(32) %4) #15
  %39 = invoke noundef nonnull align 8 dereferenceable(16) ptr @_ZStrsIcSt11char_traitsIcESaIcEERSt13basic_istreamIT_T0_ES7_RNSt7__cxx1112basic_stringIS4_S5_T1_EE(ptr noundef nonnull align 8 dereferenceable(16) %0, ptr noundef nonnull align 8 dereferenceable(32) %4)
          to label %40 unwind label %52

40:                                               ; preds = %_ZSteqIcEN9__gnu_cxx11__enable_ifIXsr9__is_charIT_EE7__valueEbE6__typeERKNSt7__cxx1112basic_stringIS2_St11char_traitsIS2_ESaIS2_EEESC_.exit.thread
  %41 = load ptr, ptr %39, align 8
  %42 = getelementptr i8, ptr %41, i64 -24
  %43 = load i64, ptr %42, align 8
  %44 = getelementptr inbounds i8, ptr %39, i64 %43
  %45 = invoke noundef zeroext i1 @_ZNKSt9basic_iosIcSt11char_traitsIcEEcvbEv(ptr noundef nonnull align 8 dereferenceable(264) %44)
          to label %46 unwind label %52

46:                                               ; preds = %40
  br i1 %45, label %47, label %59

47:                                               ; preds = %46
  %48 = call noundef i32 @_ZNKSt7__cxx1112basic_stringIcSt11char_traitsIcESaIcEE7compareEPKc(ptr noundef nonnull align 8 dereferenceable(32) %4, ptr noundef nonnull @.str.3) #15
  %49 = icmp eq i32 %48, 0
  br i1 %49, label %50, label %54

50:                                               ; preds = %47
  %51 = invoke noundef nonnull align 8 dereferenceable(16) ptr @_ZNK11colvarparse10read_block19read_block_contentsERSib(ptr noundef nonnull align 8 dereferenceable(40) %1, ptr noundef nonnull align 8 dereferenceable(16) %0, i1 noundef zeroext false)
          to label %71 unwind label %52

52:                                               ; preds = %66, %64, %59, %57, %50, %40, %_ZSteqIcEN9__gnu_cxx11__enable_ifIXsr9__is_charIT_EE7__valueEbE6__typeERKNSt7__cxx1112basic_stringIS2_St11char_traitsIS2_ESaIS2_EEESC_.exit.thread
  %53 = landingpad { ptr, i32 }
          cleanup
  call void @_ZNSt7__cxx1112basic_stringIcSt11char_traitsIcESaIcEED1Ev(ptr noundef nonnull align 8 dereferenceable(32) %4) #15
  br label %73

54:                                               ; preds = %47
  %55 = getelementptr inbounds i8, ptr %1, i64 32
  %56 = load ptr, ptr %55, align 8
  %.not = icmp eq ptr %56, null
  br i1 %.not, label %71, label %57

57:                                               ; preds = %54
  %58 = invoke noundef nonnull align 8 dereferenceable(32) ptr @_ZNSt7__cxx1112basic_stringIcSt11char_traitsIcESaIcEEaSERKS4_(ptr noundef nonnull align 8 dereferenceable(32) %56, ptr noundef nonnull align 8 dereferenceable(32) %4)
          to label %71 unwind label %52

59:                                               ; preds = %46
  %60 = load ptr, ptr %0, align 8
  %61 = getelementptr i8, ptr %60, i64 -24
  %62 = load i64, ptr %61, align 8
  %63 = getelementptr inbounds i8, ptr %0, i64 %62
  invoke void @_ZNSt9basic_iosIcSt11char_traitsIcEE5clearESt12_Ios_Iostate(ptr noundef nonnull align 8 dereferenceable(264) %63, i32 noundef 0)
          to label %64 unwind label %52

64:                                               ; preds = %59
  %65 = invoke noundef nonnull align 8 dereferenceable(16) ptr @_ZNSi5seekgESt4fposI11__mbstate_tE(ptr noundef nonnull align 8 dereferenceable(16) %0, i64 %6, i64 %7)
          to label %66 unwind label %52

66:                                               ; preds = %64
  %67 = load ptr, ptr %0, align 8
  %68 = getelementptr i8, ptr %67, i64 -24
  %69 = load i64, ptr %68, align 8
  %70 = getelementptr inbounds i8, ptr %0, i64 %69
  invoke void @_ZNSt9basic_iosIcSt11char_traitsIcEE8setstateESt12_Ios_Iostate(ptr noundef nonnull align 8 dereferenceable(264) %70, i32 noundef 1)
          to label %71 unwind label %52

71:                                               ; preds = %66, %50, %57, %54
  call void @_ZNSt7__cxx1112basic_stringIcSt11char_traitsIcESaIcEED1Ev(ptr noundef nonnull align 8 dereferenceable(32) %4) #15
  br label %72

72:                                               ; preds = %32, %71
  call void @_ZNSt7__cxx1112basic_stringIcSt11char_traitsIcESaIcEED1Ev(ptr noundef nonnull align 8 dereferenceable(32) %3) #15
  ret ptr %0

73:                                               ; preds = %52, %37
  %.pn = phi { ptr, i32 } [ %38, %37 ], [ %53, %52 ]
  call void @_ZNSt7__cxx1112basic_stringIcSt11char_traitsIcESaIcEED1Ev(ptr noundef nonnull align 8 dereferenceable(32) %3) #15
  resume { ptr, i32 } %.pn
}